target datalayout = "e-m:e-p270:32:32-p271:32:32-p272:64:64-i64:64-i128:128-f80:128-n8:16:32:64-S128"
target triple = "x86_64-pc-linux-gnu"

; Function Attrs: nounwind uwtable
define internal void @rv40_weight_func_nornd_16(ptr noundef %0, ptr noundef %1, ptr noundef %2, i32 noundef %3, i32 noundef %4, i64 noundef %5) #3 {
  %7 = alloca ptr, align 8
  %8 = alloca ptr, align 8
  %9 = alloca ptr, align 8
  %10 = alloca i32, align 4
  %11 = alloca i32, align 4
  %12 = alloca i64, align 8
  %13 = alloca i32, align 4
  %14 = alloca i32, align 4
  store ptr %0, ptr %7, align 8, !tbaa !10
  store ptr %1, ptr %8, align 8, !tbaa !10
  store ptr %2, ptr %9, align 8, !tbaa !10
  store i32 %3, ptr %10, align 4, !tbaa !14
  store i32 %4, ptr %11, align 4, !tbaa !14
  store i64 %5, ptr %12, align 8, !tbaa !12
  call void @llvm.lifetime.start.p0(i64 4, ptr %13) #7
  call void @llvm.lifetime.start.p0(i64 4, ptr %14) #7
  store i32 0, ptr %14, align 4, !tbaa !14
  br label %15

15:                                               ; preds = %60, %6
  %16 = load i32, ptr %14, align 4, !tbaa !14
  %17 = icmp slt i32 %16, 16
  br i1 %17, label %18, label %63

18:                                               ; preds = %15
  store i32 0, ptr %13, align 4, !tbaa !14
  br label %19

19:                                               ; preds = %47, %18
  %20 = load i32, ptr %13, align 4, !tbaa !14
  %21 = icmp slt i32 %20, 16
  br i1 %21, label %22, label %50

22:                                               ; preds = %19
  %23 = load i32, ptr %11, align 4, !tbaa !14
  %24 = load ptr, ptr %8, align 8, !tbaa !10
  %25 = load i32, ptr %13, align 4, !tbaa !14
  %26 = sext i32 %25 to i64
  %27 = getelementptr inbounds i8, ptr %24, i64 %26
  %28 = load i8, ptr %27, align 1, !tbaa !16
  %29 = zext i8 %28 to i32
  %30 = mul i32 %23, %29
  %31 = load i32, ptr %10, align 4, !tbaa !14
  %32 = load ptr, ptr %9, align 8, !tbaa !10
  %33 = load i32, ptr %13, align 4, !tbaa !14
  %34 = sext i32 %33 to i64
  %35 = getelementptr inbounds i8, ptr %32, i64 %34
  %36 = load i8, ptr %35, align 1, !tbaa !16
  %37 = zext i8 %36 to i32
  %38 = mul i32 %31, %37
  %39 = add i32 %30, %38
  %40 = add i32 %39, 16
  %41 = lshr i32 %40, 5
  %42 = trunc i32 %41 to i8
  %43 = load ptr, ptr %7, align 8, !tbaa !10
  %44 = load i32, ptr %13, align 4, !tbaa !14
  %45 = sext i32 %44 to i64
  %46 = getelementptr inbounds i8, ptr %43, i64 %45
  store i8 %42, ptr %46, align 1, !tbaa !16
  br label %47

47:                                               ; preds = %22
  %48 = load i32, ptr %13, align 4, !tbaa !14
  %49 = add nsw i32 %48, 1
  store i32 %49, ptr %13, align 4, !tbaa !14
  br label %19, !llvm.loop !30

50:                                               ; preds = %19
  %51 = load i64, ptr %12, align 8, !tbaa !12
  %52 = load ptr, ptr %8, align 8, !tbaa !10
  %53 = getelementptr inbounds i8, ptr %52, i64 %51
  store ptr %53, ptr %8, align 8, !tbaa !10
  %54 = load i64, ptr %12, align 8, !tbaa !12
  %55 = load ptr, ptr %9, align 8, !tbaa !10
  %56 = getelementptr inbounds i8, ptr %55, i64 %54
  store ptr %56, ptr %9, align 8, !tbaa !10
  %57 = load i64, ptr %12, align 8, !tbaa !12
  %58 = load ptr, ptr %7, align 8, !tbaa !10
  %59 = getelementptr inbounds i8, ptr %58, i64 %57
  store ptr %59, ptr %7, align 8, !tbaa !10
  br label %60

60:                                               ; preds = %50
  %61 = load i32, ptr %14, align 4, !tbaa !14
  %62 = add nsw i32 %61, 1
  store i32 %62, ptr %14, align 4, !tbaa !14
  br label %15, !llvm.loop !31

63:                                               ; preds = %15
  call void @llvm.lifetime.end.p0(i64 4, ptr %14) #7
  call void @llvm.lifetime.end.p0(i64 4, ptr %13) #7
  ret void
}