; Function Attrs: nofree norecurse nosync nounwind memory(argmem: readwrite) uwtable
define internal void @rv40_weight_func_nornd_16(ptr noundef writeonly captures(none) %0, ptr noundef readonly captures(none) %1, ptr noundef readonly captures(none) %2, i32 noundef %3, i32 noundef %4, i64 noundef %5) #3 {
  br label %.preheader

.preheader:                                       ; preds = %6, %21
  %.025 = phi i32 [ 0, %6 ], [ %25, %21 ]
  %.01824 = phi ptr [ %0, %6 ], [ %24, %21 ]
  %.01923 = phi ptr [ %1, %6 ], [ %22, %21 ]
  %.02022 = phi ptr [ %2, %6 ], [ %23, %21 ]
  br label %7

7:                                                ; preds = %.preheader, %7
  %indvars.iv = phi i64 [ 0, %.preheader ], [ %indvars.iv.next, %7 ]
  %8 = getelementptr inbounds nuw i8, ptr %.01923, i64 %indvars.iv
  %9 = load i8, ptr %8, align 1, !tbaa !8
  %10 = zext i8 %9 to i32
  %11 = mul i32 %4, %10
  %12 = getelementptr inbounds nuw i8, ptr %.02022, i64 %indvars.iv
  %13 = load i8, ptr %12, align 1, !tbaa !8
  %14 = zext i8 %13 to i32
  %15 = mul i32 %3, %14
  %16 = add i32 %11, 16
  %17 = add i32 %16, %15
  %18 = lshr i32 %17, 5
  %19 = trunc i32 %18 to i8
  %20 = getelementptr inbounds nuw i8, ptr %.01824, i64 %indvars.iv
  store i8 %19, ptr %20, align 1, !tbaa !8
  %indvars.iv.next = add nuw nsw i64 %indvars.iv, 1
  %exitcond.not = icmp eq i64 %indvars.iv.next, 16
  br i1 %exitcond.not, label %21, label %7, !llvm.loop !28

21:                                               ; preds = %7
  %22 = getelementptr inbounds i8, ptr %.01923, i64 %5
  %23 = getelementptr inbounds i8, ptr %.02022, i64 %5
  %24 = getelementptr inbounds i8, ptr %.01824, i64 %5
  %25 = add nuw nsw i32 %.025, 1
  %exitcond27.not = icmp eq i32 %25, 16
  br i1 %exitcond27.not, label %26, label %.preheader, !llvm.loop !29

26:                                               ; preds = %21
  ret void
}